          [LAP6 ADD MANUSCRIPT AND LOAD BINARY
          [BLOCK 324
          [QUARTER 3
          [CONVERT WITH MSDISPLY
              @1400
1400 7645     JMP 8R [LOAD BINARY
1401 5637     STC 8K
1402 7621     JMP 8D [NO FOR CF
          [ADD MANUSCRIPT
1403 6654     JMP 3N+4
1404 6176     JMP 1K
1405 7564     JMP 8L
1406 7417     JMP 8E [MS BY BN
          [NAME MATCH
1407 1030 #8C LDA i 10
1410 1620     BSE i
1411 2000     2000
1412 5525     STC 8A+1
1413 1030     LDA i 10
1414 0451     APO
1415 7621     JMP 8D [NO MS
1416 7424     JMP 8E+5
          [BLOCK NUMBER REQUEST
1417 1000 #8E LDA
1420 2371     6E
1421 1620     BSE i
1422 2000     2000
1423 5525     STC 8A+1
1424 1000 #8U LDA
1425 1524     8A
1426 1460     SAE i
1427 0700     RDC 7E
1430 7437     JMP 8F-5
1431 3741     ADD 8N-3 [SAME UNIT, FIX i BIT
1432 5524     STC 8A
1433 2414     ADD 3S-2 [NOP
1434 5527     STC 8A+3
1435 3671     ADD 8S-1 [JMP 8K+3
1436 5443     STC 8F-1
1437 7522     JMP 8A-2
1440 1030     LDA i 10
1441 1130     ADA i 10
1442 0450     AZE
1443 7621     JMP 8D
1444 1330 #8F LDH i 10
1445 1420     SHD i
1446 7700     7700
1447 7511     JMP 8J
1450 1362     STH i 2
1451 1460     SAE i
1452 0012     12
1453 7460     JMP 8H
          [EOL
1454 6557 #8G JMP 3K
1455 0017     COM

1456 2526     ADD 3A+3
1457 4526     STC 3A+3
          [CHECK Q2 EMPTY
1460 7515 #8H JMP 8A-7
1461 6432     JMP 3G
1462 6452     JMP 3H
1463 6212     JMP 1L
1464 6374     JMP 3P
1465 1000     LDA
1466 0003     3
1467 1440     SAE
1470 0002     2
1471 7444     JMP 8F
1472 1000     LDA
1473 0526     3A+3
1474 0470     AZE i
1475 7503     JMP p+6 [TOO MANY LINES
1476 1000     LDA
1477 0151     1G [MAX BLOCK USED
1500 1460     SAE i
1501 6425     6|7G-1 [LAST BLOCK?
1502 7444     JMP 8F [ALL OK
1503 1020     LDA i
1504 7776     -1
1505 6561     JMP 3K+2
1506 2526     ADD 3A+3
1507 4526     STC 3A+3
1510 6176     JMP 1K
          [FINISHED ADD MS
1511 6222 #8J JMP 1T [TAPE NOT OK
1512 6523     JMP 3A
1513 6567     JMP 3L
1514 7637     JMP 8K
          [COMMON SUBROUTINES
          [READ INDEX
1515 1000     LDA
1516 0010     10
1517 1460     SAE i
1520 5377     5377
1521 6000     JMP 0
1522 0041     SET 1
1523 0000     0
1524 0700 #8A RDC
1525 2426     2|7G  [INDEX
1526 0453     IBZ
1527 7526     JMP p-1
1530 0070     SET i 10
1531 4777     4777
1532 2213     ADD 1P
1533 3525     ADD 8A+1
1534 5525     STC 8A+1
1535 6001     JMP 1
          [NAME MATCH
1536 0041 #8B SET 1
1537 0000     0
1540 0072     SET i 12

1541 7773     -4
1542 0073     SET i 13
1543 2372     6E+1
1544 1000     LDA
1545 0010     10
1546 1620     BSE i
1547 0007     7
1550 1460     SAE i
1551 5377     5377
1552 7555     JMP p+3
1553 0221     XSK i 1
1554 6001     JMP 1
1555 4010     STC 10
1556 1030     LDA i 10
1557 1473     SAE i 13
1560 7540     JMP 8B+2
1561 0232     XSK i 12
1562 7556     JMP p-4
1563 6001     JMP 1 [NAME MATCH
          [SUBROUTINE CONTROL
1564 0057 #8L SET 17
1565 0000     0
1566 1000     LDA
1567 2377     6E+6 [u
1570 3524     ADD 8A [RDC
1571 5524     STC 8A
1572 1300     LDH
1573 2373     6E+2
1574 1420     SHD i
1575 7700     7700
1576 6000     JMP 0 [NAME NOT REQUESTED
1577 0237     XSK i 17
1600 1000     LDA
1601 2377     6E+6
1602 0246     ROL 6 [UNIT TO Z
1603 5760     STC 8T
1604 3524     ADD 8A [RDC u
1605 3741     ADD 8N-3  [20
1606 5744     STC 8N [RDC i u
1607 7522     JMP 8A-2 [READ INDEX
1610 1030     LDA i 10
1611 1460     SAE i
1612 5757     5757
1613 7621     JMP 8D
1614 7536     JMP 8B
1615 6017     JMP 17 [NAME FOUND
1616 7522     JMP 8A-2
1617 7536     JMP 8B
1620 6017     JMP 17
          [NO MS OR BINARY
          [NO NAME MATCH
1621 0011 #8D CLR
1622 0061     SET i 1
1623 0340     340
1624 0072     SET i 12
1625 2103     6A+102  [N

1626 1752     DSC 12
1627 1772     DSC i 12
1630 0061     SET i 1
1631 0364     364
1632 1772     DSC i 12
1633 1772     DSC i 12
1634 0415     KST
1635 7622     JMP 8D+1
1636 0515     KBD
1637 0720 #8K RDC i 7E [RETURN
1640 2302     2|7D+2
1641 7011     JMP 2M+11
1642 0703     MTB 7E
1643 0000     0    [STOP TAPE
1644 7621     JMP 8D
          [LOAD BINARY
1645 7564 #8R JMP 8L
1646 7660     JMP 8M [BIN IN WORKING AREA
1647 1030     LDA i 10 [NAME MATCH
1650 1030     LDA i 10
1651 1030     LDA i 10 [QN|BN
1652 5745     STC 8N+1
1653 1030     LDA i 10 [N BLKS
1654 0451     APO
1655 7621     JMP 8D
1656 0017     COM
1657 7672     JMP 8S
          [BIN IN WORKING AREA
1660 0720 #8M RDC i 7E
1661 2330     2|7D+30
1662 3010     ADD 1010 [1ST BIN
1663 3012     ADD 1012 [QN
1664 1120     ADA i
1665 0340     7D+40
1666 5745     STC 8N+1
1667 3011     ADD 1011 [-N BLKS
1670 0470     AZE i
1671 7642     JMP 8K+3 [NO BINARY
1672 4010 #8S STC 10
1673 3744     ADD 8N
1674 3777     ADD 1777
1675 5777     STC 1777 [MTB
1676 3745     ADD 8N+1 [QN|BN
1677 3747     ADD 8N+3 [1001
1700 0230     XSK i 10
1701 7677     JMP p-2
1702 5755     STC 8N+11 [LAST QN|BN
1703 3745     ADD 8N+1
1704 1560     BCL i
1705 7000     7000
1706 3760     ADD 8T
1707 0243     ROL 3
1710 5760     STC 8T [BN TO Z
          [CLEAR MEMORY
1711 0061 #8P SET i 1
1712 3777     3777

1713 0011     CLR
1714 1061     STA i 1
1715 0201     XSK 1
1716 7714     JMP p-2
1717 0061     SET i 1
1720 0001     1
1721 1061     STA i 1 [LAST REGISTER CLEARED
1722 1440     SAE
1723 1721     p-2
1724 7721     JMP p-3
1725 4001     STC 1 [CLEAR 1
          [READ BINARY
1726 3745     ADD 8N+1
          [CHECK BIN QN
1727 1560 #8Q BCL i
1730 0777     777
1731 1460     SAE i
1732 3000     3000
1733 7744     JMP 8N
1734 1000     LDA
1735 1745     8N+1
1736 5774     STC 8Z+1
1737 3744     ADD 8N
1740 1560     BCL i
1741 0020     20  [CONSTANT
1742 5777     STC 1777 [RDC u
1743 7746     JMP 8N+2
1744 0720 #8N RDC i 7E
1745 0000     FIRST QN|BN
1746 1020     LDA i
1747 1001     1001
1750 1200     LAM
1751 1745     p-4
1752 0452     LZE
1753 7757     JMP p+4 [Q7 READ
1754 1460     SAE i
1755 0001     LAST QN|BN+1
1756 7727     JMP 8Q
1757 7757     JMP 8V
              @1757
          [CLEAR Q3
1757 1020 #8V LDA i
1760 0000 #8T 7E|  [BN TIMES 8
1761 0354     SCR 14  [TO Z
1762 4000     STC 0
1763 2001     ADD 1  [SAVE 1
1764 5776     STC 8Z+3
1765 0061     SET i 1
1766 1721     8Q-6
1767 1061     STA i 1 [LAST REGISTER CLEARED
1770 1440     SAE
1771 1767     p-2
1772 7767     JMP p-3
          [FINISHED LOAD BIN
1773 0060 #8Z SET i
1774 0000     0     [BN

1775 0061     SET i 1
1776 0000     0     [RESET 1
1777 7762     -15  [MTB OR RDC
          [LAP6 ADD MANUSCSRIPT AND LOAD BINARY
