          [LAP6 FILE COMMANDS
          [SM,SB,CM,CB,LI,PM
          [BLOCKS 320-321, 323
          [QUARTERS 0,1,3
              @15
0015 0701     RCG 7E
0016 7300     7|7D
0017 6151     JMP 1N
0020 6256     JMP 3A   [CM
0021 6255     JMP 3A-1 [CB
0022 6233     JMP 3C   [SB
0023 6171     JMP 1A   [SM
0024 6322     JMP 3B   [LI
0025 6312     JMP 3D   [PM
          [TAPE CONTROL
0026 0042 #2M SET 2
0027 0104     1F
0030 0045     SET 5
0031 0002     2
0032 0066     SET i 6
0033 0036     1R  [BN
0034 6065     JMP 2C
0035 0015     15  [RDC i u
0036 0350 #1R 7A
0037 6073     JMP 2R [UP BN
0040 6043     JMP p+3 [ALL DONE
0041 0450     AZE  [7 DONE?
0042 6035     JMP 1R-1 [NO
0043 1020     LDA i [ALL OR 7 DONE
0044 0703 #2N MTB  [MTB u
0045 6134     JMP 2X [MOTION CHECK
          [WRITE
0046 0042     SET 2
0047 0005     5
0050 0066     SET i 6
0051 0054     2B
0052 6065     JMP 2C
0053 0000     TAPE WR
0054 0000 #2B BN
0055 6073     JMP 2R [UP BN
0056 6103     JMP 1M [ALL DONE
0057 0450     AZE
0060 6053     JMP 2B-1
0061 1020     LDA i [ALL OR 7 DONE
0062 0706 #2A WRITE UNIT
0063 6134     JMP 2X
0064 6030     JMP 2M+2
          [SET QUARTER
0065 0011 #2C CLR
0066 1106     ADA 6
0067 1620     BSE i
0070 1000     1000
0071 1046     STA 6
0072 6000     JMP 0
          [UP BLOCK NUMBER
0073 1020 #2R LDA i

0074 1001     1001
0075 1206     LAM 6
0076 1560     BCL i
0077 0777     777
0100 0222     XSK i 2
0101 0220     XSK i 0
0102 6000     JMP 0
          [CHECK N BLOCKS
0103 0062 #1M SET i 2
0104 0000 #1F -N BLOCKS
0105 0450     CHECK TAPE
0106 0000     FILE BN
0107 0450     AZE
0110 6117     JMP 2S
0111 2106     ADD p-3
0112 2143     ADD 1P
0113 4106     STC p-5
0114 0222     XSK i 2
0115 6105     JMP 1F+1
0116 6015     JMP 15
          [CHECK FAIL
0117 1000 #2S LDA
0120 0106     1M+3
0121 4054     STC 2B
0122 2002     ADD 2
0123 1040     STA
0124 0104     1F
0125 2036     ADD 1R
0126 0470     AZE i
0127 0017     COM
0130 1560     BCL i
0131 7000     7000
0132 4036     STC 1R
0133 6030     JMP 2M+2
          [MOTION CHECK
0134 0041 #2X SET 1
0135 0000     0
0136 1400     SHD
0137 4142     4|p+3
0140 6000     JMP 0
0141 4142     STC p+1
0142 1500     STOP TAPE
0143 0001 #1P 1   [CONSTANT
0144 0453     IBZ
0145 6144     JMP p-1
0146 6001     JMP 1
          [NO
0147 0703     MTB 7E
0150 0000     0
0151 0011 #1N CLR
0152 0061     SET i 1
0153 0340     340
0154 1760     DSC i
0155 3077     3077
0156 1760     DSC i
0157 7706     7706

0160 0061    SET i 1
0161 0364    364
0162 1760    DSC i
0163 4177    4177
0164 1760    DSC i
0165 7741    7741
0166 0415    KST
0167 6152    JMP 1N+1
0170 6015    JMP 15
          [SAVE MANUSCRIPT
          [LAST BN IN ACC
0171 1120 #1A ADA i
0172 2431     -7A-5000+2
0173 0017     COM  [CONSTANT
0174 4104     STC 1F
0175 0720     RDC i 7E
0176 1321     1|7D+21
0177 0720     RDC i 7E
0200 3323     3|7D+23
0201 2143     ADD 1P
0202 4450     STC 2Q
          [CHECK PARTIAL SAVE
0203 1100     ADA
0204 2371     6E
0205 0450     AZE
0206 7400     JMP 2P
0207 1020 #2L LDA i
0210 0000     7B
0211 6720     JMP 1J+2 [FIX RDC UNIT
0212 6725     JMP 1S
0213 6407     JMP 1Z
0214 6417     JMP 1Y
0215 6431     JMP 1X
0216 6222     JMP p+4
0217 6361     JMP 1W
0220 6455     JMP 1L [REPLACE
0221 6224     JMP p+3
0222 6524     JMP 1V
0223 6151     JMP 1N
0224 0044     SET 4
0225 0002     2     [CONSTANT
0226 6551     JMP 1U
0227 1620     BSE i
0230 0000 #3E 0
0231 6700     JMP 1T
0232 6026     JMP 2M
          [SAVE BINARY
0233 0720 #3C RDC i 7E
0234 3330     3|7D+30 [CV Q0
0235 3410     ADD 1410
0236 1120     ADA i
0237 0340     7D+40
0240 4036     STC 1R
0241 3412     ADD 1412
0242 4230     STC 3E
0243 3411     ADD 1411

0244 0470     AZE i
0245 6147     JMP 1N-2
0246 4104     STC 1F
0247 1120     ADA i
0250 0003     3
0251 4450     STC 2Q
0252 1120     ADA i
0253 0000     7E
0254 6211     JMP 2L+2
          [COPY BINARY
0255 2225     ADD 3E-3 [2
          [COPY MANUSCRIPT
0256 2143 #3A ADD 1P  [1
0257 4450     STC 2Q
0260 6725     JMP 1S
0261 6407     JMP 1Z
0262 6151     JMP 1N
0263 6431     JMP 1X
0264 6151     JMP 1N
0265 6361     JMP 1W
0266 6270     JMP p+2
0267 6151     JMP 1N
0270 0017     COM
0271 4104     STC 1F
0272 1002     LDA 2
0273 1560     BCL i
0274 7000     7000
0275 4036     STC 1R
0276 1002     LDA 2
0277 1560     BCL i
0300 0777     777
0301 4230     STC 3E
0302 6716     JMP 1J
0303 1000     LDA
0304 2377     6E+6
0305 1660     BCO i
0306 0010     10
0307 1040     STA
0310 2377     6E+6
0311 6212     JMP 2L+3
          [PRINT MANUSCRIPT
0312 0720 #3D RDC i 7E
0313 3335     3|7D+35
0314 1020     LDA i
0315 6340     JMP 3F
0316 4334     STC 3F-4
0317 1020     LDA i
0320 7002     JMP 1002
0321 4346     STC 3F+6
          [LIST-Q0
0322 2143 #3B ADD 1P   [1
0323 4450     STC 2Q
0324 6725     JMP 1S [FIX RCG
0325 6407     JMP 1Z [RCG INDEX
0326 6151     JMP 1N [NO INDEX
0327 6431     JMP 1X [NAME

0330 6151     JMP 1N [NO NAME
0331 6361     JMP 1W [ENTRY
0332 6334     JMP p+2
0333 6151     JMP 1N [NO ENTRY
0334 0720     RDC i 7E
0335 2332     2|7D+32
0336 0700     RDC 7E
0337 1333     1|7D+33
0340 1002 #3F LDA 2 [BN
0341 5377     STC 1377
0342 2062     ADD 2A
0343 1120     ADA i
0344 7774     -3   [UNIT
0345 5376     STC 1376
0346 0061     SET i 1
0347 2370     6E-1
0350 0062     SET i 2
0351 0770     9J-1
0352 0063     SET i 3
0353 7771     -6
0354 1021     LDA i 1
0355 1062     STA i 2
0356 0223     XSK i 3
0357 6354     JMP p-3
0360 7001     JMP 1001
          [FILE SUBROUTINES
          [CHECK MS OR BINARY PRESENT
0361 0045 #1W SET 5
0362 0002     2
0363 1025     LDA i 5
0364 0451     APO
0365 0220     XSK i 0
0366 6000     JMP 0
          [CHECK BOUNDS
0367 1000 #1H LDA
0370 0006     6
0371 2104     ADD 1F
0372 0470     AZE i
0373 0017     COM
0374 0451     APO
0375 0220     XSK i 0
0376 6000     JMP 0
          [FIX ADDRESS
0377 1000 #1K LDA
0400 0002     2
0401 1620     BSE i
0402 7007     7007
0403 4002     STC 2
0404 0202     XSK 2
0405 6000     JMP 0
0406 6001     JMP 1
          [RCG AND CHECK INDEX
0407 0000 #1Z TAPE
0410 1426     1|7G
0411 1000     LDA
0412 3000     3000

0413 1420     SHD i
0414 5700     5700
0415 0220     XSK i 0
0416 6000     JMP 0
          [MAKE INDEX
0417 0041 #1Y SET 1
0420 0000     0
0421 0062     SET i 2
0422 2777     2777
0423 1020     LDA i
0424 5757     5757
0425 1062     STA i 2
0426 0202     XSK 2
0427 6425     JMP p-2
0430 6001     JMP 1
          [NAME SEARCH
0431 0041 #1X SET 1
0432 0000     0
0433 0062     SET i 2
0434 3000     3000
0435 0063     SET i 3
0436 7773     -4
0437 0064     SET i 4
0440 2372     6E+1
0441 6377     JMP 1K
0442 1022     LDA i 2
0443 1464     SAE i 4
0444 6435     JMP 1X+4
0445 0223     XSK i 3
0446 6442     JMP p-4
0447 1020     LDA i
0450 0004 #2Q 1 OR 3
0451 1140     ADM
0452 0002     2
0453 0221     XSK i 1
0454 6001     JMP 1
          [REPLACE
0455 0043 #1L SET 3
0456 0000     0
0457 0061     SET i 1
0460 0234     234
0461 0064     SET i 4
0462 4516     3H-4000
0463 1324     LDH i 4
0464 1420     SHD i
0465 1200     1200
0466 6502     JMP 2K
0467 0241     ROL 1
0470 1120     ADA i
0471 2001     6A
0472 4005     STC 5
0473 1745     DSC 5
0474 1765     DSC i 5
0475 1020     LDA i
0476 0004     4
0477 2001     ADD 1

0500 4001     STC 1
0501 6463     JMP 1L+6
0502 0415 #2K KST
0503 6457     JMP 1L+2
0504 0515     KBD
0505 1460     SAE i
0506 0045     45    [R
0507 6015     JMP 15
0510 0045     SET 5
0511 0002     2
0512 1020     LDA i
0513 5757     5757
0514 1045     STA 5
0515 1065     STA i 5
0516 6003     JMP 3
          [REPLACE TABLE
0517 4530 #3H 4530
0520 4337     4337
0521 2426     2426
0522 3013     3013
0523 1200     1200
          [SLOT SEARCH
0524 0064 #1V SET i 4
0525 2372     6E+1
0526 0041     SET 1
0527 0000     0
0530 0062     SET i 2
0531 3000     3000
0532 6377     JMP 1K
0533 0045     SET 5
0534 0002     2
0535 1022     LDA i 2
0536 1460     SAE i
0537 5757     5757
0540 6532     JMP 1V+6
0541 1024     LDA i 4
0542 1065     STA i 5
0543 1520     SRO i
0544 3567     3567
0545 6541     JMP p-4
0546 0042     SET 2
0547 0005     5
0550 6447     JMP 2Q-1
          [GAP SEARCH CONTROL
0551 0050 #1U SET 10
0552 0000     0
0553 0066     SET i 6
0554 7347     -7C
0555 1020     LDA i
0556 7777     7777
0557 4654     STC 1E
0560 6617     JMP 1B
0561 0047     SET 7
0562 0006     6
0563 0011     CLR
0564 4654     STC 1E

0565 0066     SET i 6
0566 0270     7F
0567 6617     JMP 1B
          [FIND NEAREST OF TWO
0570 1000 #1G LDA
0571 0007     7
0572 0017     COM
0573 2006     ADD 6
0574 1120     ADA i
0575 6723     -7G-7G
0576 0451     APO
0577 6602     JMP p+3
0600 6367     JMP 1H
0601 6010     JMP 10
0602 1000     LDA
0603 0007     7
0604 1120     ADA i
0605 1000     1000
0606 6371     JMP 1H+2
0607 6613     JMP p+4
0610 6367     JMP 1H
0611 6010     JMP 10
0612 6151     JMP 1N
0613 1000     LDA
0614 0007     7
0615 0017     COM
0616 6010     JMP 10
          [GAP SEARCH
0617 0041 #1B SET 1
0620 0000     0
0621 0062     SET i 2
0622 7000     7000
0623 6377     JMP 1K
0624 1322     LDH i 2
0625 1420     SHD i
0626 5700     5700
0627 6623     JMP p-4
0630 0222     XSK i 2
0631 0222     XSK i 2
0632 0222     XSK i 2
0633 6640     JMP 1C
0634 6662     JMP 1D
0635 6640     JMP 1C
0636 6662     JMP 1D
0637 6623     JMP 1B+4
          [GET BN
0640 1022 #1C LDA i 2
0641 1560     BCL i
0642 7000     7000
0643 1040     STA
0644 0011     11
0645 1122     ADA i 2
0646 0451     APO
0647 0220     XSK i 0
0650 0017     COM
0651 1040     STA

0652 0012     12
0653 1520     SRO i
0654 0000 #1E FWD OR BWD
0655 6000     JMP 0
0656 0052     SET 12
0657 0011     11
0660 4011     STC 11
0661 6000     JMP 0
          [DN COMPARE
0662 1000 #1D LDA
0663 0011     11
0664 2006     ADD 6
0665 0470     AZE i
0666 0017     COM
0667 0451     APO
0670 6000     JMP 0
0671 2104     ADD 1F
0672 0451     APO
0673 0470     AZE i
0674 6000     JMP 0
0675 0046     SET 6
0676 0012     12
0677 6621     JMP 1B+2
          [WRITE INDEX
0700 1044 #1T STA 4
0701 1560     BCL i
0702 7000     7000
0703 1040     STA
0704 0054     2B
0705 4106     STC 1M+3
0706 2104     ADD 1F
0707 0017     COM
0710 1064     STA i 4
0711 0435     KST i
0712 6015     JMP 15
0713 0000     TAPE INS
0714 1426     1|7G
0715 6000     JMP 0
          [FIX TAPE INSTRUCTIONS
          [RDC UNIT
0716 1000 #1J LDA
0717 2377     6E+6
0720 1140     ADM
0721 0044     2N  [MTB #
0722 1140     ADM
0723 0035     1R-1 [RDC i u
0724 6000     JMP 0
          [WRITE UNIT
0725 1000 #1S LDA
0726 2377     6E+6
0727 1620     BSE i
0730 0701     RCG
0731 1040     STA
0732 0407     1Z
0733 2225     ADD 3E-3 [2
0734 1040     STA

0735 0062     2A [MTB u
0736 1040     STA
0737 0142     2X+6 [MOTION CHK
0740 2225     ADD 3E-3  [2
0741 1040     STA
0742 0713     1T+13
0743 1120     ADA i
0744 0021     21
0745 1040     STA
0746 0053     2B-1
0747 2143     ADD 1P [1
0750 4105     STC 1M+2
0751 6000     JMP 0
          [PARTIAL SAVE
              @1400
1400 0061 #2P SET i 1
1401 2370     6E-1
1402 0062     SET i 2
1403 7770     -7
1404 0063     SET i 3
1405 1665     2T-1
1406 1021     LDA i 1
1407 1063     STA i 3
1410 0222     XSK i 2
1411 7406     JMP p-3
1412 1020 #1Q LDA i
1413 0350     7A
1414 1040     STA
1415 1616     2W
1416 5554     STC 2J+3
1417 1020     LDA i
1420 4350     4|7A
1421 5652     STC 2V
1422 3666     ADD 2T
1423 5474     STC 2F
1424 4001     STC 1
1425 0062     SET i 2
1426 7777     7777
1427 1020     LDA i
1430 0000     7B
1431 1660     BCO i
1432 0010     10
1433 1060     STA i
1434 0000     OTHER UNIT
1435 1620     BSE i
1436 0703     MTB
1437 1040     STA
1440 1661     2V+7
1441 1120     ADA i
1442 0023     23
1443 1040     STA
1444 1651     2V-1
1445 2143     ADD 1P [1
1446 5553     STC 2J+2
1447 3667 #2D ADD 2T+1
1450 0470     AZE i

1451 3517     ADD 2H-5
1452 2143     ADD 1P  [1
1453 5465     STC 2E
1454 7603     JMP 2Y
1455 1321     LDH i 1
1456 1420     SHD i
1457 7700     7700
1460 6151     JMP 1N
1461 1460     SAE i
1462 0012     12
1463 7454     JMP p-7
1464 1020     LDA i
1465 4000 #2E SECOND LINE NUMBER
1466 3517     ADD 2H-5
1467 0470     AZE i
1470 6151     JMP 1N
1471 5465     STC 2E
1472 3517     ADD 2H-5
1473 1160     ADM i
1474 0400 #2F FIRST LINE NUMBER
1475 0450     AZE
1476 7454     JMP 2D+5
          [TRANSFER READY-FIRST LINE FOUND
1477 1020     LDA i
1500 2065     2065
1501 1062     STA i 2
1502 0017     COM
1503 1062     STA i 2
1504 7631 #2G JMP 2Z
1505 7603     JMP 2Y
1506 1321     LDH i 1
1507 1362     STH i 2
1510 1420     SHD i
1511 7700     7700
1512 7530     JMP 2H+4
1513 1460     SAE i
1514 0012     12
1515 7504     JMP 2G
1516 1020     LDA i
1517 7776     -1     [CONSTANT
1520 1140     ADM
1521 1465     2E
1522 0450     AZE
1523 7504     JMP 2G
          [FINISHED MAKING NEW MS
1524 7631 #2H JMP 2Z
1525 1020     LDA i
1526 7777     7777
1527 1362     STH i 2
1530 1000     LDA
1531 0002     2
1532 1560     BCL i
1533 6377     6377
1534 0244     ROL 4
1535 2143     ADD 1P  [1
1536 0017     COM

1537 4004     STC 4
1540 3630     ADD 2W+12
1541 5661     STC 2V+7
1542 7640     JMP 2Z+7
1543 1560     BCL i
1544 7000     7000
1545 0017     COM
1546 1120     ADA i
1547 0350     7A
1550 4104     STC 1F
          [CHECK TAPE
1551 0041 #2J SET 1
1552 0104     1F
1553 0000     CHECK
1554 0350     7A
1555 0450     AZE
1556 7412     JMP 1Q
1557 2143     ADD 1P [1
1560 3554     ADD 2J+3
1561 5554     STC 2J+3
1562 0221     XSK i 1
1563 7553     JMP 2J+2
1564 0720     RDC i 7E
1565 4304     4|7D+4
1566 0061     SET i 1
1567 2370     6E-1
1570 0062     SET i 2
1571 7770     -7
1572 0063     SET i 3
1573 1665     2T-1
1574 1023     LDA i 3
1575 1061     STA i 1
1576 0222     XSK i 2
1577 7574     JMP p-3
1600 1000     LDA
1601 1434     2D-13
1602 6211     JMP 2L+2
          [READY OLD MS
1603 0043 #2Y SET 3
1604 0000     0
1605 0011     CLR
1606 2001     ADD 1
1607 0450     AZE
1610 6000     JMP 0
1611 3616     ADD 2W
1612 1620     BSE i
1613 6000     6000
1614 5616     STC 2W
1615 0720     RDC i 7B
1616 0350 #2W 7A
1617 3654     ADD 2V+2
1620 1200     LAM
1621 1616     2W
1622 0451     APO
1623 7615     JMP 2W-1
1624 0703     MTB 7B

1625 0000     0
1626 0061     SET i 1
1627 6777     6777
1630 6003     JMP 3
          [WRITE NEW MS
1631 0064 #2Z SET i 4
1632 7775     -2
1633 0011     CLR
1634 2002     ADD 2
1635 1460     SAE i
1636 6777     6777
1637 6000     JMP 0
1640 0043     SET 3
1641 0000     0
1642 1000     LDA
1643 1652     2V
1644 1560     BCL i
1645 3000     3000
1646 5652     STC 2V
1647 0435     KST i
1650 6015     JMP 15
1651 1356     WRITE TAPE
1652 4350 #2V 4|7A
1653 1020     LDA i
1654 1001     1001   [CONSTANT
1655 1140     ADM
1656 1652     2V
1657 0224     XSK i 4
1660 7647     JMP 2V-3
1661 1500     STOP TAPE
1662 0000     0
1663 0062     SET i 2
1664 7777     7777
1665 6003     JMP 3
1666 0000 #2T 0 [LN
1667 0000     0 [LN
1670 7777     -0 [NAME
1671 7777     -0
1672 7777     -0
1673 7777     -0
1674 7777     -0 [UNIT
              7D=300
              7A=350
              7B=0
              7E=0
              7C=430
              6E=2371
              7G=426
              7F=270  [FILE UPPER BOUND
              6A=2001
              9J=771
          [LAP6 FILE COMMANDS
