          [LAP6 MANUSCRIPT INPUT AND DISPLAY
          [INITIAL SETTINGS
              @15
0015 0701     RCG 7E
0016 7300     7|7D [INITIAL START
0017 6020     JMP 20
0020 6030     JMP 1A [START 20
0021 6030     JMP 1A
0022 4020     STC 20
0023 0077     SET i 17
0024 6073     JMP 1C-4
0025 0704     WRC 7E
0026 0300     7D
0027 6073     JMP 1C-4
0030 0062 #1A SET i 2
0031 6777     6777
0032 1020     LDA i
0033 2065     2065
0034 1062     STA i 2
0035 0017     COM
0036 1062     STA i 2
0037 0063     SET i 3
0040 7001     7001
0041 0065     SET i 5
0042 2237     6D
0043 1020     LDA i
0044 5347     5|7A-1
0045 1040     STA
0046 0735     3B+7 [BN FOR BQ
0047 4721     STC 3W+11
0050 2044     ADD p-4 [FOR CHECKING WA TOO FULL
0051 2144     ADD 1W+11 [1000
0052 4151     STC 1G
0053 2224     ADD 1T+2 [FOR CONTROL BLOCK NOT FULL
0054 4576     STC 3L+7
0055 4762     STC 2X+5
0056 2213     ADD 1P
0057 1040     STA
0060 0524     3A+1
0061 4526     STC 3A+3
0062 2276     ADD 4A+3
0063 1040     STA
0064 1025     5B+1  [LNS|FRAME
0065 0244     ROL 4 [140-VERT
0066 5066     STC 5E+6
          [KNOB SET
0067 7261 #1B JMP 5V [READ KNOB
0070 5072     STC 5F+2
0071 0017     COM
0072 4227     STC 1T+5 [TAPE OK
          [SET TELETYPEWRITER
0073 0015     RTA
0074 1620     BSE i
0075 0001     1
0076 0014     ATR
          [FIRST CHARACTER

0077 0066 #1C SET i 6
0100 7000     -777
0101 7022     JMP 5A
0102 0515     KBD
0103 0077     SET i 17
0104 5766     1H-4000 [CHARS
0105 1437     SHD i 17
0106 7717     JMP 1Y [1ST CASE
0107 1437     SHD i 17
0110 6101     JMP 1C+2 [EOL
0111 1437     SHD i 17
0112 6155     JMP 1D [DELETE
          [REGULAR CHARACTER
0113 1362 #1R STH i 2
0114 6432     JMP 3G
0115 6452     JMP 3H
0116 6212     JMP 1L
0117 6374     JMP 3P
0120 0226     XSK i 6
0121 7737     JMP 1F
0122 1020     LDA i
0123 0012     12 [LINE TOO LONG
          [EOL
0124 1362 #1E STH i 2
0125 0046     SET 6
0126 0003     3
0127 1326     LDH i 6
0130 1420     SHD i
0131 5600     5600
0132 6232     JMP 1M
          [REGULAR EOL
0133 6557 #1W JMP 3K
0134 0017     COM  [CONSTANT
0135 2526     ADD 3A+3
0136 4526     STC 3A+3 [MAX LN
0137 6222     JMP 1T
0140 6432     JMP 3G
0141 6452     JMP 3H
0142 6212     JMP 1L
0143 6374     JMP 3P
0144 1000     LDA  [CONSTANT
0145 0526     3A+3
0146 0470     AZE i
0147 6155     JMP 1D
0150 1020     LDA i [WA FULL
0151 6350 #1G 6|7A
0152 1460     SAE i
0153 6425     6|7G-1 [INDEX-1
0154 6077     JMP 1C
          [DELETE WHOLE LINE
0155 1020 #1D LDA i
0156 0001     1
0157 1440     SAE
0160 0526     3A+3
0161 6163     JMP p+2
0162 6030     JMP 1A

0163 1440     SAE
0164 0524     3A+1
0165 6167     JMP p+2
0166 6077     JMP 1C
0167 0017     COM
0170 6561     JMP 3K+2
0171 2526     ADD 3A+3
0172 4526     STC 3A+3
0173 6222     JMP 1T
0174 6176     JMP 1K
0175 6077     JMP 1C
          [DELETE UNFINISHED LINE OR META
0176 0050 #1K SET 10
0177 0000     0
0200 6624     JMP 3M
0201 1020     LDA i
0202 7776     -1    [CONSTANT
0203 6214     JMP 1L+2
0204 4215     STC 1L+3
0205 6654     JMP 3N+4
0206 6200     JMP 1K+2
0207 0043     SET 3
0210 0002     2
0211 6010     JMP 10
          [COUNT PLAYGROUND
0212 1020 #1L LDA i
0213 0001 #1P 1
0214 1160     ADM i
0215 1740     PLAYGROUND SCORE
0216 0450     AZE
0217 0220     XSK i 0
0220 2144     ADD 1W+11 [1000
0221 6000     JMP 0
          [TAPE NOT OK
0222 0011 #1T CLR
0223 4762     STC 2X+5 [CLEAR META EXIT
0224 4227     STC p+3
0225 6000     JMP 0
0226 1520     SRO i
0227 7777     7777  [OK IF ONE
0230 0220     XSK i 0 [OK
0231 6000     JMP 0 [NOT OK
          [META CHECK
0232 1326 #1M LDH i 6
0233 1120     ADA i
0234 7770     -7    [CONSTANT
0235 0451     APO
0236 6273     JMP 4A
0237 1306     LDH 6
0240 1420     SHD i
0241 3100     3100  [FREE META
0242 7703     JMP 2J
0243 0246     ROL 6
0244 4000     STC 0
0245 1326     LDH i 6
0246 2000     ADD 0

0247 0061     SET i 1
0250 2176     6Z-1 [META TABLE
0251 0067     SET i 7
0252 7737     6Z-6Y-3 [LENGTH
0253 0227     XSK i 7
0254 6257     JMP p+3
0255 6654     JMP 3N+4
0256 6174     JMP 1K-2
0257 1461 #1N SAE i 1
0260 6253     JMP p-5
0261 1021     LDA i 1
0262 4263     STC p+1
0263 0000     TO META
          [KNOB SET
          [NEW LINES|FRAME
0264 1040 #5L STA
0265 1072     5F+2
0266 1040     STA
0267 1025     5B+1 [LINES|FRAME
0270 0244     ROL 4
0271 5066     STC 5E+6 [VERTICAL
0272 7024     JMP 5B
          [LOCATES
          [LOCATE #
0273 1020 #4A LDA i
0274 3777     -4000
0275 1140     ADM
0276 0006     6    [CONTTANT
0277 6665     JMP 4U
0300 2213     ADD 1P
0301 1040     STA
0302 0705     4T
0303 4320     STC 4M
0304 6654     JMP 3N+4
0305 6176     JMP 1K
0306 0011     CLR
0307 2524     ADD 3A+1
0310 0017     COM
0311 1200     LAM
0312 0705     4T
0313 6226     JMP 1T+4
0314 7345     JMP 4S
0315 0472     LZE i
0316 7355     JMP 4L
0317 1020     LDA i
0320 0000 #4M REQ LN
0321 0017     COM
0322 4326     STC p+4
0323 0011     CLR
0324 2526     ADD 3A+3
0325 1220     LAM i
0326 0017     CHECK MAX
0327 1000     LDA
0330 0526     3A+3
0331 0472     LZE i
0332 4320     STC 4M

0333 7355     JMP 4L
          [LOCATE FORWARD
          [FORWARD PAGE
0334 1000 #4P LDA
0335 1025     5B+1
0336 2202     ADD 1K+4
0337 0450     AZE
0340 6343     JMP 4F+2
          [FORWARD LINE
0341 0011 #4F CLR
0342 2213     ADD 1P
0343 4705     STC 4T
0344 0050     SET 10
0345 0227     1T+5 [TAPE STATUS
0346 6353     JMP 4H
0347 1000     LDA
0350 0010     10
0351 4227     STC 1T+5
0352 6077     JMP 1C
          [SLIDE FORWARD
0353 0053 #4H SET 13
0354 0000     0
0355 6523     JMP 3A
0356 6013     JMP 13
0357 6551     JMP 3J
0360 6364     JMP 4J
0361 6557     JMP 3K
0362 1140     ADM
0363 0705     4T
0364 6510 #4J JMP 3E
0365 6432     JMP 3G
0366 6452     JMP 3H [WQ FULL
0367 1000     LDA
0370 0705     4T
0371 0450     AZE
0372 6355     JMP 4H+2
0373 6013     JMP 13
          [PLAYGROUND FULL
0374 0057 #3P SET 17
0375 0000     0
0376 6523     JMP 3A
0377 6017     JMP 17
0400 1000     LDA
0401 0735     3B+7
0402 4536     STC 3F
0403 0054     SET 14
0404 0002     2
0405 1324 #3R LDH i 4
0406 1420     SHD i
0407 7700     7700
0410 6416     JMP 3S
0411 1362     STH i 2
0412 6510     JMP 3E
0413 6432     JMP 3G
0414 0016     NOP
0415 6405     JMP 3R

0416 1362 #3S STH i 2
0417 6710     JMP 3W
0420 6726     JMP 3B
0421 0042     SET 2
0422 0014     14
0423 2531     ADD 3A+6
0424 4151     STC 1G [WA FULL
0425 6533     JMP 3F-3
0426 1020 #3T LDA i
0427 0700     RDC 7B
0430 6712     JMP 3W+2
0431 6017     JMP 17
          [MSINPUT SUBROUTINES
          [CHECK WQ FULL
0432 0055 #3G SET 15
0433 0000     0
0434 0220     XSK i 0
0435 1020     LDA i
0436 7377     7377
0437 1440     SAE
0440 0002     2
0441 6000     JMP 0
0442 6710     JMP 3W
0443 6726     JMP 3B
0444 6222     JMP 1T [TAPE NOT OK
0445 0062     SET i 2
0446 6777     6777
0447 6523     JMP 3A [WA FULL
0450 4151     STC 1G
0451 6015     JMP 15
          [WQ FULL-FIX BPL and BQ
0452 0055 #3H SET 15
0453 0000     0
0454 1020     LDA i
0455 7377     -400
0456 2003     ADD 3
0457 4003     STC 3
0460 2524     ADD 3A+1
0461 1045     STA 5
0462 0225     XSK i 5
0463 0076     SET i 16 [WQ TO BQ  [CONSTANT
0464 2777     2777
0465 0074     SET i 14
0466 2377     2377
0467 0072     SET i 12
0470 7377     -400
0471 1036     LDA i 16
0472 1074     STA i 14
0473 0232     XSK i 12
0474 6471     JMP p-3
0475 1000     LDA
0476 0005     5
0477 1460     SAE i
0500 2371     6E
0501 6015     JMP 15
0502 1020     LDA i [CONTROL TABLE FULL

0503 6222     JMP 1T [MAKE TAPE ALWAYS NOT OK
0504 4576     STC 3L+7
0505 0065     SET i 5
0506 2237     6D
0507 6015     JMP 15
          [CHECK CQ EMPTY
0510 0055 #3E SET 15
0511 0000     0
0512 1000     LDA
0513 0004     4
0514 0450     AZE
0515 6000     JMP 0
0516 6737     JMP 3X
0517 6745     JMP 3C
0520 0064     SET i 4
0521 7377     7377  [FIX PFA
0522 6015     JMP 15
          [CHECK CONTINUATION
0523 1020 #3A LDA i
0524 0011     CURRENT LN
0525 1460     SAE i
0526 0000     MAXIMUM LN
0527 0220     XSK i 0
0530 1020     LDA i
0531 0000     BIGGEST BLOCK USED IN WA
0532 6000     JMP 0
          [FIX BNS
0533 0055     SET 15
0534 0000     0
0535 1020     LDA i
0536 0000 #3F BQBN SAVED
0537 1440     SAE
0540 0735     3B+7
0541 6543     JMP p+2
0542 6614     JMP 3V-4
0543 1040     STA
0544 0735     3B+7
0545 4721     STC 3W+11
0546 6734     JMP 3B+6 [RDC BQ
0547 2735     ADD 3B+7
0550 6607     JMP 3V-11 [RDC CQ
          [CQ TO WQ
0551 1324 #3J LDH i 4
0552 1362     STH i 2
0553 1420     SHD i
0554 1200     1200
0555 0220     XSK i 0
0556 6000     JMP 0
          [EOL FIXES
0557 1020 #3K LDA i
0560 0001     1
0561 2524     ADD 3A+1
0562 4524     STC 3A+1
0563 0043     SET 3
0564 0002     2
0565 2202     ADD 1K+4

0566 6000     JMP 0
          [MAKE TAPE OK
0567 0055 #3L SET 15
0570 0000     0
0571 0044     SET 4
0572 0002     2
0573 1020     LDA i
0574 7777     7777
0575 1364     STH i 4
0576 4227     STC 1T+5
0577 2524     ADD 3A+1
0600 1045     STA 5
0601 1020     LDA i
0602 0724     WRC i 7B
0603 6712     JMP 3W+2
0604 2735     ADD 3B+7
0605 1060     STA i
0606 0000     BQBN SAVED
0607 1620     BSE i
0610 2000     2000
0611 4746     STC 3C+1
0612 6737     JMP 3X
0613 6745     JMP 3C
0614 1020     LDA i
0615 0400     400
0616 2002     ADD 2
0617 4004     STC 4
0620 1020 #3V LDA i
0621 6777     6777
0622 4215     STC 1L+3
0623 6447     JMP 3G+15
          [CHECK WQ EMPTY
0624 0055 #3M SET 15
0625 0000     0
0626 1020     LDA i
0627 6777     6777
0630 1440     SAE
0631 0002     2
0632 6000     JMP 0
0633 0243     ROL 3
0634 6730     JMP 3B+2
0635 6734     JMP 3B+6 [RDC BQ
0636 2745     ADD 3C
0637 6712     JMP 3W+2
0640 0062     SET i 2
0641 7377     7377
0642 2005     ADD 5
0643 1460     SAE i [CONTROL TABLE NOT EMPTY
0644 2237     6D
0645 2202     ADD 1K+4  [-1
0646 4005     STC 5
0647 6447     JMP 3G+15
          [LOWER PSA, PFA
0650 1020 #3N LDA i
0651 3777     -4000
0652 2004     ADD 4

0653 4004     STC 4
0654 1020     LDA i
0655 3777     -4000
0656 2002     ADD 2
0657 4002     STC 2
0660 1302     LDH 2
0661 1420     SHD i
0662 1200     1200
0663 0220     XSK i 0
0664 6000     JMP 0
          [DECODE META
0665 0056 #4U SET 16 [CONSTANT
0666 0000     0
0667 0011     CLR
0670 4705     STC 4T
0671 1326     LDH i 6
0672 1420     SHD i
0673 1400     1400
0674 6671     JMP p-3
0675 2234     ADD 1M+2
0676 0471     APO i
0677 6704     JMP 4T-1
0700 1306     LDH 6
0701 2705     ADD 4T
0702 0243     ROL 3
0703 6670     JMP 4U+3
0704 1020     LDA i
0705 0000 #4T NUM TO MOVE
0706 0303     ROR 3
0707 6016     JMP 16
          [TAPE SRS FOR STRING SLIDE
          [WQ WRC OR RDC, FWD OR BWD
0710 1020 #3W LDA i
0711 0704     WRC 7B
0712 4720     STC p+6
0713 1020     LDA i
0714 1001     1001
0715 1140     ADM
0716 0721     p+3
0717 4531     STC 3A+6 [WA BN
0720 0340     TAPE INSTR
0721 0006     BN-Q6
0722 1000     LDA
0723 0735     3B+7
0724 4721     STC p-3
0725 6000     JMP 0
          [BQ RDC,FWD OR BWD
0726 1020 #3B LDA i
0727 0001     1
0730 1140     ADM
0731 0735     p+4
0732 4721     STC 3W+11
0733 6000     JMP 0
0734 0720     RDC i 7B
0735 0005     BN-Q5
0736 6000     JMP 0

          [CQ FIX
0737 1020 #3X LDA i
0740 0001     1
0741 1140     ADM
0742 0746     3C+1
0743 4751     STC 3D
0744 6000     JMP 0
          [CQ RDC FWD
0745 0700 #3C RDC 7B
0746 0007     BN-Q7
0747 6000     JMP 0
          [CQ WRC BWD
0750 0704     WRC 7B
0751 0007 #3D BN-Q7
0752 6000     JMP 0
          [META EXIT
0753 0077     SET i 17
0754 6073     JMP 1C-4 [FOR EXIT
0755 0041 #2X SET 1
0756 0000     0
0757 6654     JMP 3N+4
0760 6176     JMP 1K
0761 1520     SRO i
0762 0000     0
0763 6001     JMP 1
0764 1020     LDA i
0765 7777     -0
0766 4762     STC p-4
0767 0076     SET i 16
0770 7300     7|7D
0771 0725     WCG i 7E
0772 7300     7|7D
0773 6001     JMP 1
              @1000
          [ADD MANUSCRIPT
1000 7407 #2M JMP 2D
1001 7003     JMP p+2
1002 7006     JMP p+4 [NAME,UNIT
1003 1000     LDA
1004 2372     6E+1
1005 7501     JMP 2U+3
1006 0720     RDC i 7E
1007 3324     3|7D+24
1010 7403     JMP 1403
1011 0700     RDC 7E
1012 3303     3|7D+3
1013 6077     JMP 1C
          [LOAD BINARY
1014 7407 #2K JMP 2D
1015 0016     NOP
1016 7572     JMP 2E
1017 0720     RDC i 7E
1020 3324     3|7D+24
1021 7400     JMP 1400
          [DISPLAY
          [ONCE PER ENTRY

1022 0057 #5A SET 17
1023 0000     0
1024 1020 #5B LDA i
1025 0000     LINES-FRAME
1026 0017     COM
1027 4014     STC 14
1030 2524     ADD 3A+1
1031 5240     STC 5C+3
1032 0050     SET 10
1033 0002     2
1034 2002     ADD 2
1035 1120     ADA i
1036 3542     -235-4000
1037 5051     STC 5D
1040 1310     LDH 10
1041 1420     SHD i
1042 1200     1200
1043 7235     JMP 5C
1044 1020     LDA i
1045 3777     -4000
1046 1140     ADM
1047 0010     10
1050 1460     SAE i
1051 0000 #5D NO MATTER
1052 7040     JMP 5D-11
1053 1020     LDA i
1054 7776     -1
1055 3240     ADD 5C+3
1056 0241     ROL 1
1057 5063     STC 5E+3
          [PRESET-ONCE PER FRAME
1060 0054 #5E SET 14
1061 0010     10
1062 1020     LDA i
1063 0137     LN-1 FOR DIS
1064 5252     STC 5K+1
1065 1020     LDA i
1066 0000     VERT COOR
1067 5172     STC 5M+3
          [ONCE PER LINE
1070 7261 #5F JMP 5V [READ KNOB
1071 1460     SAE i
1072 0007     KNOB 7 [LINES|FRAME
1073 6264     JMP 5L
1074 0435     KST i
1075 6017     JMP 17
          [DISPLAY LN
1076 0061 #5H SET i 1
1077 1013     1013
1100 1020     LDA i
1101 0002     2
1102 3252     ADD 5K+1
1103 5252     STC 5K+1
1104 7251     JMP 5K
1105 0450     AZE
1106 7115     JMP 5J

1107 1120     ADA i
1110 0024     24
1111 2001     ADD 1
1112 4001     STC 1
1113 7246     JMP 5K-3
1114 7105     JMP p-7
1115 7166 #5J JMP 5Z+1
1116 7246     JMP 5K-3
1117 7115     JMP 5J
          [FIRST CHARACTER
1120 0061 #5N SET i 1
1121 1157     1157
1122 7222     JMP 5X
1123 1334     LDH i 14
1124 1420     SHD i
1125 2200     2200
1126 7137     JMP 5P
1127 1420     SHD i
1130 6600     6600
1131 7137     JMP 5P
1132 1420     SHD i
1133 5600     5600
1134 7153     JMP 5Y
1135 0061     SET i 1
1136 1277     1277
1137 7165 #5P JMP 5Z
1140 7222     JMP 5X
1141 1334     LDH i 14
1142 1460     SAE i
1143 0012     12
1144 7137     JMP 5P
1145 1020     LDA i
1146 1063     1063
1147 1440     SAE
1150 0001     1
1151 7202     JMP 5W
1152 7070     JMP 5F
          [DISPLAY META
1153 1020 #5Y LDA i
1154 7440     -337
1155 5172     STC 5M+3 [VERT
1156 2665     ADD 4U
1157 7207     JMP 5W+5 [HORIZ
1160 7165     JMP 5Z
1161 0061     SET i 1
1162 1103     1103
1163 7173     JMP 5Z+6
1164 7140     JMP 5P+1
          [DISPLAY
1165 0241 #5Z ROL 1
1166 1120     ADA i
1167 2000 #5M 6A-1
1170 4012     STC 12
1171 1120     ADA i
1172 0000     VERT COOR
1173 1772     DSC i 12
1174 1772     DSC i 12
1175 0221     XSK i 1
1176 0221     XSK i 1
1177 0221     XSK i 1
1200 0221     XSK i 1
1201 6000     JMP 0
1202 0011 #5W CLR
1203 1020     LDA i
1204 7740     -37
1205 1200     LAM
1206 1172     5M+3
1207 1560     BCL i
1210 7020     7020
1211 0061     SET i 1
1212 1063     1063
1213 0435     KST i
1214 6017     JMP 17
1215 1460     SAE i
1216 0340     340
1217 6000     JMP 0
1220 5066     STC 5E+6 [MOVE DISPLAY TO TOP OF SCOPE
1221 6000     JMP 0
          [CHK END OF FRAME
1222 1000 #5X LDA
1223 0002     2
1224 1440     SAE
1225 0014     14
1226 6000     JMP 0
1227 0061     SET i 1
1230 1753     1753
1231 1020     LDA i
1232 0156     156  [MARKER
1233 7166     JMP 5Z+1
1234 7060     JMP 5E
          [EOL-LOWER LN
1235 1020 #5C LDA i
1236 7776     -1
1237 1160     ADM i
1240 0000     LN FOR DIS
1241 0470     AZE i
1242 7056     JMP 5E-2
1243 0234     XSK i 14
1244 6000     JMP 0
1245 7056     JMP 5E-2
          [COUNT DIGITS
1246 1520     SRO i
1247 4210     4210
1250 7120     JMP 5J+3
1251 1020 #5K LDA i
1252 0000     LN FOR DIS
1253 0243     ROL 3
1254 1040     STA
1255 1252     5K+1
1256 1560     BCL i
1257 7761     7761
1260 6000     JMP 0

1261 0107 #5V SAM 7
1262 0344     SCR 4 [+,-7 OR +,-17
1263 2234     ADD 1M+2 [-7,GIVES -0 TO -16 OR -26 TO +10
1264 0471     APO i
1265 0011     CLR  [TOO BIG
1266 2134     ADD 1W+1 [17, GIVES 1 TO 17 OR -7 TO 17
1267 0471     APO i
1270 6000     JMP 0 [1 TO 17
1271 1020     LDA i
1272 0001     1     [TOO SMALL
1273 6000     JMP 0
          [BACKWARD PAGE
1274 1000 #4Q LDA
1275 1025     5B+1
1276 2202     ADD 1K+4
1277 0450     AZE
1300 7303     JMP 4B+2
          [BACKWARD LINE
1301 0011 #4B CLR
1302 2213     ADD 1P
1303 4705     STC 4T
1304 6226     JMP 1T+4
1305 7307     JMP p+2
1306 7311     JMP 4D
1307 6523     JMP 3A
1310 6567     JMP 3L
1311 1020 #4D LDA i
1312 0001     1
1313 1440     SAE
1314 0524     3A+1
1315 7317     JMP p+2
1316 6077     JMP 1C
1317 6624     JMP 3M
          [CHECK CQ FULL
1320 1020 #4C LDA i
1321 7377     7377
1322 1440     SAE
1323 0004     4
1324 7331     JMP 4E
1325 6750     JMP 3D-1 [WRC CQ
1326 4004     STC 4
1327 3336     ADD 4E+5
1330 6741     JMP 3X+2
1331 1302 #4E LDH 2
1332 1344     STH 4
1333 6650     JMP 3N
1334 7317     JMP 4C-1
1335 1020     LDA i
1336 7776     -1   [CONSTANT
1337 6561     JMP 3K+2
1340 1140     ADM
1341 0705     4T
1342 0450     AZE
1343 7311     JMP 4C-7

1344 6077     JMP 1C
          [LOCATE-TAPE NOT OK
1345 0452 #4S LZE
1346 6342     JMP 4F+1
1347 0017     COM
1350 4705     STC 4T
1351 6523     JMP 3A
1352 7354     JMP p+2
1353 7311     JMP 4D
1354 6567     JMP 3L
          [FIND REQUEST IN CONTROL BLOCK
1355 0011 #4L CLR
1356 0065     SET i 5
1357 2235     6D-2
1360 2213     ADD 1P
1361 4705     STC 4T
1362 1005     LDA 5
1363 4524     STC 3A+1
1364 1025     LDA i 5
1365 0017     COM
1366 5372     STC p+4
1367 0011     CLR
1370 2320     ADD 4M
1371 1220     LAM i
1372 0000     NO MATTER
1373 0452     LZE
1374 7360     JMP 4L+3
1375 1020 #4G LDA i
1376 3110     5000+7A-6D-1
1377 2005     ADD 5
1400 4536     STC 3F
1401 6533     JMP 3F-3
1402 0062     SET i 2
1403 6777     6777
1404 0064     SET i 4
1405 7377     7377
1406 6344     JMP 4F+3
          [META PARAMETER DECODE
          [LN-NAME-UNIT
1407 0011 #2D CLR
1410 0072     SET i 12
1411 2371     6E
1412 1052     STA 12
1413 1072     STA i 12
1414 0017     COM
1415 1072     STA i 12
1416 1072     STA i 12
1417 1072     STA i 12
1420 1072     STA i 12
1421 1072     STA i 12
1422 0041     SET 1
1423 0000     0
          [LINE NUMBER
1424 0072     SET i 12
1425 2370     6E-1
1426 0077     SET i 17

1427 7775     -2
1430 0054     SET 14
1431 0006     6
1432 6665 #2F JMP 4U
1433 1072     STA i 12
1434 1306     LDH 6
1435 1420     SHD i
1436 1200     1200
1437 6001     JMP 1
1440 1460     SAE i
1441 0063     63   [COMMA
1442 7446     JMP p+4
1443 0237     XSK i 17
1444 7430     JMP 2F-2
1445 7452     JMP p+5
1446 0011     CLR
1447 1052     STA 12
1450 0046     SET 6
1451 0014     14
          [NAME
1452 0072 #2N SET i 12
1453 6372     6E+4001
1454 0076     SET i 16
1455 7766     -11
1456 0221     XSK i 1
1457 1326     LDH i 6
1460 1420     SHD i
1461 1400     1400
1462 7457     JMP p-3
1463 1420     SHD i
1464 1200     1200
1465 6255     JMP 1N-2
1466 1420     SHD i
1467 6300     6300
1470 7476     JMP 2U
1471 1372     STH i 12
1472 1326     LDH i 6
1473 0236     XSK i 16
1474 7463     JMP p-11
1475 6255     JMP 1N-2 [ERROR
          [UNIT
1476 6665 #2U JMP 4U
1477 0040     SET 0
1500 0001     1
1501 0243     ROL 3
1502 1040     STA
1503 2377     6E+6
1504 1560     BCL i
1505 0050     50
1506 0470     AZE i
1507 6000     JMP 0
1510 6255     JMP 1N-2 [ERROR
          [TAPE FIX
1511 0077     SET i 17
1512 6073     JMP 1C-4
1513 0041 #2T SET 1

1514 0000     0
1515 6654     JMP 3N+4
1516 6176     JMP 1K
1517 6226     JMP 1T+4
1520 7522     JMP p+2
1521 6761     JMP 2X+4
1522 1020     LDA i
1523 7776     7776
1524 4705     STC 4T
1525 6353     JMP 4H
1526 6567     JMP 3L
1527 6764     JMP 2X+7
          [SM,CM,CB SR
1530 1000 #2Y LDA
1531 0000     0
1532 5540     STC p+6
1533 7407     JMP 2D
1534 6255     JMP 1N-2 [ERROR
1535 6753     JMP 2X-2
1536 0721     RCG i 7E
1537 1320     1|7D+20
1540 0000     RETURN
          [CV,SM SR
1541 1020 #4Z LDA i
1542 0001     1
1543 1440     SAE
1544 0526     3A+3
1545 6000     JMP 0
1546 6255     JMP 1N-2 [ERROR
          [LIST, PRINT MANUSCRIPT SR
1547 0051 #2W SET 11
1550 0000     0
1551 7407     JMP 2D
1552 7555     JMP p+3
1553 6753     JMP 2X-2
1554 6011     JMP 11
1555 7511     JMP 2T-2 [WA MS
1556 0231     XSK i 11
1557 6011     JMP 11
          [DISPLAY INDEX, COPY FILE, PRINT INDEX SR
1560 0051 #2Z SET 11
1561 0000     0
1562 7407     JMP 2D
1563 7565     JMP p+2
1564 6255     JMP 1N-2 [ERROR
1565 1000     LDA
1566 2371     6E
1567 7501     JMP 2U+3
1570 6753     JMP 2X-2
1571 6011     JMP 11
          [EXIT, LOAD BINARY SR
1572 0051 #2E SET 11
1573 0000     0
1574 1020     LDA i
1575 1020     LDA i
1576 4020     STC 20

1577 4762     STC 2X+5
1600 0077     SET i 17
1601 6020     JMP 20
1602 7513     JMP 2T
1603 6011     JMP 11
          [COPY
1604 7511 #2P JMP 2T-2
1605 0720     RDC i 7E
1606 0336     7D+36
1607 6017     JMP 17
          [CONVERT
1610 7541 #2C JMP 4Z
1611 7511     JMP 2T-2
1612 0721     RCG i 7E
1613 2330     2|7D+30
1614 7002     JMP 1002
          [SAVE MANUSCRIPT
1615 7541 #2S JMP 4Z
1616 7407     JMP 2D
1617 6255     JMP 1N-2 [ERROR
1620 7511     JMP 2T-2
1621 0720     RDC i 7E
1622 0320     7D+20
1623 2606     ADD 3V-12 [LAST BN
1624 6023     JMP 23
          [SAVE BINARY
1625 7530 #2B JMP 2Y
1626 6022     JMP 22
          [COPY MANUSCRIPT
1627 7530 #2L JMP 2Y
1630 6020     JMP 20
          [COPY BINARY
1631 7530     JMP 2Y
1632 6021     JMP 21
          [COPY FILE
1633 7560     JMP 2Z
1634 0720     RDC i 7E
1635 0314     7D+14
1636 6017     JMP 17
          [LIST
1637 7547 #2A JMP 2W
1640 7647     JMP 2I-3
1641 7541     JMP 4Z
1642 0721     RCG i 7E
1643 2330     2|7D+30
1644 0720     RDC i 7E
1645 1333     1|7D+33
1646 7000     JMP 1000
1647 0721     RCG i 7E [FILE MS
1650 1320     1|7D+20
1651 6024     JMP 24
          [PRINT MANUSCRIPT
1652 7547 #2I JMP 2W
1653 7660     JMP p+5
1654 7541     JMP 4Z
1655 0720     RDC i 7E

1656 2322     2|7D+22
1657 7000     JMP 1000
1660 0721     RCG i 7E
1661 2320     2|7D+20 [FILE MS
1662 6025     JMP 25
          [DISPLAY INDEX
1663 7560 #2G JMP 2Z
1664 0720     RDC i 7E
1665 0325     7D+25
1666 6017     JMP 17
          [PRINT INDEX
1667 7560 #2Q JMP 2Z
1670 0720     RDC i 7E
1671 0325     7D+25
1672 6020     JMP 20
          [EXIT
1673 7572 #2R JMP 2E
1674 0703     MTB 7E
1675 0000     0
1676 0000     HLT
1677 0723     MTB i 7E
1700 0000     0
1701 0000     HLT
1702 6020     JMP 20
          [FREE
1703 1326 #2J LDH i 6 [2ND CHAR
1704 5711     STC p+5
1705 7511     JMP 2T-2
1706 0700     RDC 7E
1707 0317     7D+17
1710 1020     LDA i
1711 2552     2ND CHARACTER
1712 6020     JMP 20
          [DISPLAY SYMBOL TABLE
1713 6753 #2V JMP 2X-2
1714 0721     RCG i 7E
1715 1310     1|7D+10
1716 6014     JMP 14
          [1ST CASE
1717 7022 #1Y JMP 5A
1720 0515     KBD
1721 0077     SET i 17
1722 5767     1H+4000
1723 1437     SHD i 17
1724 6077     JMP 1C [DELETE
1725 1437     SHD i 17
1726 7301     JMP 4B [W
1727 1437     SHD i 17
1730 6341     JMP 4F [1
1731 1437     SHD i 17
1732 7274     JMP 4Q [Q
1733 0470     AZE i
1734 6334     JMP 4P [0
1735 7761     JMP 2H-1
1736 6077     JMP 1C [ILLEGAL
          [LATER CHARACTERS

1737 7022 #1F JMP 5A
1740 0515     KBD
1741 0077     SET i 17
1742 5766     1H-4000
1743 1437     SHD i 17
1744 7752     JMP 1Z [CASE
1745 1437     SHD i 17
1746 6124     JMP 1E [EOL
1747 1437     SHD i 17
1750 6174     JMP 1K-2 [DELETE
1751 6113     JMP 1R
          [LATER CASE
1752 7022 #1Z JMP 5A
1753 0515     KBD
1754 1420     SHD i
1755 1300     1300
1756 6174     JMP 1K-2
1757 7761     JMP 2H-1
1760 7737     JMP 1F [ILLEGAL
          [CHECK CASE
1761 1120     ADA i
1762 7745 #2H -32
1763 0471     APO i
1764 6000     JMP 0 [ILLEGAL
1765 2463     ADD 3H+11 [76
1766 6113     JMP 1R
          [CHARACTER TABLE
1767 2312 #1H 2312
1770 1352     1352
1771 0144      144
          [GRID PATTERNS
              @2001
2001 4136 #6A 4136
2002 3641     3641
2003 2101     2101
2004 0177     0177
2005 4523     4523
2006 2151     2151
2007 4122     4122
2010 2651     2651
2011 2414     2414
2012 0477     0477
2013 5172 #6C 5172
2014 0651     0651
2015 1506     1506
2016 4225     4225
2017 4443     4443
2020 6050     6050
2021 5126     5126
2022 2651     2651
2023 5122     5122 [9
2024 3651     3651
2025 4020     4020
2026 2055     2055
2027 4020     4020 [DEL
2030 2055     2055

2031 0000     0000
2032 0000     0000
2033 0101     0101
2034 0126     0126
2035 3700     3700
2036 3424     3424
2037 0404     0404
2040 0404     0404
2041 0404     0404
2042 0437     0437
2043 0000     0000
2044 0077     0077
2045 3614     3614
2046 1436     1436
2047 4020     4020 [CASE
2050 2055     2055
2051 4477     4477
2052 7744     7744
2053 5177 #6B 5177
2054 2651     2651
2055 4136     4136
2056 2241     2241
2057 4177     4177
2060 3641     3641
2061 4577     4577
2062 4145     4145
2063 4477     4477
2064 4044     4044
2065 4136 #6G 4136
2066 2645     2645
2067 1077     1077
2070 7710     7710
2071 7741     7741
2072 0041     0041
2073 4142     4142
2074 4076     4076
2075 1077     1077
2076 4324     4324
2077 0177 #6L 0177
2100 0301     0301
2101 3077     3077
2102 7730     7730
2103 3077     3077
2104 7706     7706
2105 4177     4177
2106 7741     7741
2107 4477     4477
2110 3044     3044
2111 2476 #6Q 2476
2112 0376     0376
2113 4477     4477
2114 3146     3146
2115 5121     5121
2116 4651     4651
2117 4040     4040
2120 4077     4077

2121 0177     0177
2122 7701     7701
2123 0176 #6V 0176
2124 7402     7402
2125 0677     0677
2126 7701     7701
2127 1463     1463
2130 6314     6314
2131 0770     0770
2132 7007     7007
2133 4543     4543 [Z
2134 6151     6151
2135 0404     0404 [META
2136 0404     0404
2137 2504     2504
2140 0416     0416
2141 4020     4020 [?
2142 2055     2055 [CASE,SPACE
2143 1212 #6F 1212
2144 1212     1212
2145 0107     0107
2146 0107     0107
2147 0500     0500
2150 0006     0006
2151 0001     0001
2152 0000     0000
2153 4577     4577
2154 7745     7745
2155 4177     4177
2156 0000     0000
2157 0101     0101 [^
2160 0101     0101 [CASE,CASE
2161 0070     0070 [↑
2162 0070     0070 [CASE,A
2163 0700     0700 [↓
2164 0700     0700 [CASE,B
2165 2410     2410 [<
2166 0042     0042 [CASE,C
2167 4200     4200 [>
2170 1024     1024 [CASE,D
2171 0000     0000 []
2172 7741     7741 [CASE,E
2173 2050     2050 [*
2174 0050     0050 [CASE,F
2175 2200     2200 [:
2176 0000     0000 [CASE,G
          [META COMMANDS
2177 2440 #6Z 2440 [AM
2200 7000     JMP 2M
2201 4640     4640 [SM
2202 7615     JMP 2S
2203 2651     2651 [CV
2204 7610     JMP 2C
2205 2643     2643 [CP
2206 7604     JMP 2P
2207 3053     3053 [EX

2210 7673     JMP 2R
2211 3734     3734 [LI
2212 7637     JMP 2A
2213 4625     4625 [SB
2214 7625     JMP 2B
2215 2753     2753 [DX
2216 7663     JMP 2G
2217 2746     2746 [DS
2220 7713     JMP 2V
2221 2640     2640 [CM
2222 7627     JMP 2L
2223 2625     2625 [CB
2224 7631     JMP 2L+2
2225 2631     2631 [CF
2226 7633     JMP 2L+4
2227 3742     3742 [LO
2230 7014     JMP 2K
2231 4340     4340 [PM
2232 7652     JMP 2I
2233 4353     4353  [PX
2234 7667 #6Y JMP 2Q
          [CONTROL TABLE
2235 0000     0 [MUST HAVE 2 ZEROS HERE
2236 0000     0
2237 0000 #6D
          [META PARAMETERS
              @2371
2371 0000 #6E 0
2372 0000     0
2373 0000     0
2374 0000     0
2375 0000     0
2376 0000     0
2377 0000     0
              7A=350 [WA
              7B=0 [WA UNIT
              7C=430 [FILE
              7D=300 [LAP6
              7E=0   [LAP6 UNIT
              7G=426 [INDEX
          [LAP6 MANUSCRIPT INPUT AND DISPLAY
          [ADD ADDMS LO HERE
